target datalayout = "e-m:e-p270:32:32-p271:32:32-p272:64:64-i64:64-i128:128-f80:128-n8:16:32:64-S128"
target triple = "x86_64-unknown-linux-gnu"

%"class.icu_75::ChoiceFormat" = type { %"class.icu_75::NumberFormat.base", i32, %"class.icu_75::MessagePattern" }
%"class.icu_75::NumberFormat.base" = type { %"class.icu_75::Format.base", i8, i32, i32, i32, i32, i8, i8, [4 x i16], i32 }
%"class.icu_75::Format.base" = type <{ %"class.icu_75::UObject", [157 x i8], [157 x i8] }>
%"class.icu_75::UObject" = type { ptr }
%"class.icu_75::MessagePattern" = type <{ %"class.icu_75::UObject", i32, [4 x i8], %"class.icu_75::UnicodeString", ptr, ptr, i32, [4 x i8], ptr, ptr, i32, i8, i8, i8, i8 }>
%"class.icu_75::UnicodeString" = type { %"class.icu_75::Replaceable", %"union.icu_75::UnicodeString::StackBufferOrFields" }
%"class.icu_75::Replaceable" = type { %"class.icu_75::UObject" }
%"union.icu_75::UnicodeString::StackBufferOrFields" = type { %struct.anon.0, [32 x i8] }
%struct.anon.0 = type { i16, i32, i32, ptr }

; Function Attrs: mustprogress uwtable
define void @_ZN6icu_7512ChoiceFormat12applyPatternERKNS_13UnicodeStringER10UErrorCode(ptr noundef nonnull align 8 dereferenceable(488) %this, ptr noundef nonnull align 8 dereferenceable(64) %pattern, ptr noundef nonnull align 4 dereferenceable(4) %status) unnamed_addr #1 align 2 {
entry:
  %this.addr = alloca ptr, align 8
  %pattern.addr = alloca ptr, align 8
  %status.addr = alloca ptr, align 8
  store ptr %this, ptr %this.addr, align 8
  store ptr %pattern, ptr %pattern.addr, align 8
  store ptr %status, ptr %status.addr, align 8
  %this1 = load ptr, ptr %this.addr, align 8
  %msgPattern = getelementptr inbounds %"class.icu_75::ChoiceFormat", ptr %this1, i32 0, i32 2
  %0 = load ptr, ptr %pattern.addr, align 8
  %1 = load ptr, ptr %status.addr, align 8
  %call = call noundef nonnull align 8 dereferenceable(127) ptr @_ZN6icu_7514MessagePattern16parseChoiceStyleERKNS_13UnicodeStringEP11UParseErrorR10UErrorCode(ptr noundef nonnull align 8 dereferenceable(127) %msgPattern, ptr noundef nonnull align 8 dereferenceable(64) %0, ptr noundef null, ptr noundef nonnull align 4 dereferenceable(4) %1)
  %2 = load ptr, ptr %status.addr, align 8
  %3 = load i32, ptr %2, align 4
  %constructorErrorCode = getelementptr inbounds %"class.icu_75::ChoiceFormat", ptr %this1, i32 0, i32 1
  store i32 %3, ptr %constructorErrorCode, align 4
  ret void
}