; Function Attrs: mustprogress uwtable
define void @_ZN6icu_7512ChoiceFormat12applyPatternERKNS_13UnicodeStringER10UErrorCode(ptr noundef nonnull align 8 dereferenceable(488) %this, ptr noundef nonnull align 8 dereferenceable(64) %pattern, ptr noundef nonnull align 4 dereferenceable(4) %status) unnamed_addr #1 align 2 {
entry:
  %msgPattern = getelementptr inbounds i8, ptr %this, i64 360
  %call = tail call noundef nonnull align 8 dereferenceable(127) ptr @_ZN6icu_7514MessagePattern16parseChoiceStyleERKNS_13UnicodeStringEP11UParseErrorR10UErrorCode(ptr noundef nonnull align 8 dereferenceable(127) %msgPattern, ptr noundef nonnull align 8 dereferenceable(64) %pattern, ptr noundef null, ptr noundef nonnull align 4 dereferenceable(4) %status)
  %0 = load i32, ptr %status, align 4
  %constructorErrorCode = getelementptr inbounds i8, ptr %this, i64 356
  store i32 %0, ptr %constructorErrorCode, align 4
  ret void
}